target datalayout = "e-m:e-p270:32:32-p271:32:32-p272:64:64-i64:64-i128:128-f80:128-n8:16:32:64-S128"
target triple = "x86_64-pc-linux-gnu"

%class.TimeInstant = type { %class.CompositeCounterRepresentation }
%class.CompositeCounterRepresentation = type { %class.Representation }
%class.Representation = type { %class.PairRep }
%class.PairRep = type { i64, i64 }
%class.GCTraceTimeLoggerImpl = type { %class.TimespanCallback, i8, ptr, i32, i8, %class.LogTargetHandle, %class.LogTargetHandle, i64, %class.TimeInstant }
%class.TimespanCallback = type { ptr }
%class.LogTargetHandle = type { i32, ptr }
%class.LogStream = type { %class.LogStreamImpl }
%class.LogStreamImpl = type { %class.LogStreamImplBase, %class.LogTargetHandle }
%class.LogStreamImplBase = type { %class.outputStream, %"class.LogStreamImplBase::LineBuffer" }
%class.outputStream = type { ptr, i32, i8, i32, i64, %class.TimeStamp, ptr, i64 }
%class.TimeStamp = type { i64 }
%"class.LogStreamImplBase::LineBuffer" = type { [64 x i8], ptr, i64, i64 }

@.str = private unnamed_addr constant [3 x i8] c"%s\00", align 1
@.str.4 = private unnamed_addr constant [6 x i8] c" (%s)\00", align 1
@.str.5 = private unnamed_addr constant [18 x i8] c" %luM->%luM(%luM)\00", align 1
@.str.6 = private unnamed_addr constant [8 x i8] c" %.3fms\00", align 1
@_ZTV17LogStreamImplBase = linkonce_odr hidden unnamed_addr constant { [7 x ptr] } { [7 x ptr] [ptr null, ptr null, ptr @_ZN12outputStream5flushEv, ptr @__cxa_pure_virtual, ptr @_ZN12outputStream10rotate_logEbPS_, ptr @_ZN17LogStreamImplBaseD2Ev, ptr @_ZN17LogStreamImplBaseD0Ev] }, comdat, align 8
@_ZN8Universe14_collectedHeapE = external global ptr, align 8

; Function Attrs: mustprogress nounwind uwtable
define linkonce_odr hidden void @_ZN17LogStreamImplBaseC2Ev(ptr noundef nonnull align 8 dereferenceable(144) %0) unnamed_addr #1 comdat align 2 {
  %2 = alloca ptr, align 8
  store ptr %0, ptr %2, align 8
  %3 = load ptr, ptr %2, align 8
  call void @_ZN12outputStreamC2Eb(ptr noundef nonnull align 8 dereferenceable(56) %3, i1 noundef zeroext false)
  store ptr getelementptr inbounds inrange(-16, 40) ({ [7 x ptr] }, ptr @_ZTV17LogStreamImplBase, i32 0, i32 0, i32 2), ptr %3, align 8
  %4 = getelementptr inbounds %class.LogStreamImplBase, ptr %3, i32 0, i32 1
  call void @_ZN17LogStreamImplBase10LineBufferC1Ev(ptr noundef nonnull align 8 dereferenceable(88) %4)
  ret void
}

; Function Attrs: mustprogress nounwind uwtable
define linkonce_odr hidden void @_ZN13LogStreamImplI15LogTargetHandleEC2ES0_(ptr noundef nonnull align 8 dereferenceable(160) %0, i32 %1, ptr %2) unnamed_addr #1 comdat align 2 {
  %4 = alloca %class.LogTargetHandle, align 8
  %5 = alloca ptr, align 8
  %6 = getelementptr inbounds { i32, ptr }, ptr %4, i32 0, i32 0
  store i32 %1, ptr %6, align 8
  %7 = getelementptr inbounds { i32, ptr }, ptr %4, i32 0, i32 1
  store ptr %2, ptr %7, align 8
  store ptr %0, ptr %5, align 8
  %8 = load ptr, ptr %5, align 8
  call void @_ZN17LogStreamImplBaseC2Ev(ptr noundef nonnull align 8 dereferenceable(144) %8)
  store ptr getelementptr inbounds inrange(-16, 40) ({ [7 x ptr] }, ptr @_ZTV13LogStreamImplI15LogTargetHandleE, i32 0, i32 0, i32 2), ptr %8, align 8
  %9 = getelementptr inbounds %class.LogStreamImpl, ptr %8, i32 0, i32 1
  call void @llvm.memcpy.p0.p0.i64(ptr align 8 %9, ptr align 8 %4, i64 16, i1 false)
  ret void
}

; Function Attrs: mustprogress nounwind uwtable
define linkonce_odr hidden void @_ZN9LogStreamD2Ev(ptr noundef nonnull align 8 dereferenceable(160) %0) unnamed_addr #1 comdat align 2 {
  %2 = alloca ptr, align 8
  store ptr %0, ptr %2, align 8
  %3 = load ptr, ptr %2, align 8
  call void @_ZN13LogStreamImplI15LogTargetHandleED2Ev(ptr noundef nonnull align 8 dereferenceable(160) %3) #7
  ret void
}

; Function Attrs: mustprogress nounwind uwtable
define linkonce_odr hidden noundef ptr @_ZN8Universe4heapEv() #1 comdat align 2 {
  %1 = load ptr, ptr @_ZN8Universe14_collectedHeapE, align 8
  ret ptr %1
}

; Function Attrs: mustprogress nounwind uwtable
define linkonce_odr hidden void @_ZN9LogStreamC2E15LogTargetHandle(ptr noundef nonnull align 8 dereferenceable(160) %0, i32 %1, ptr %2) unnamed_addr #1 comdat align 2 {
  %4 = alloca %class.LogTargetHandle, align 8
  %5 = alloca ptr, align 8
  %6 = alloca %class.LogTargetHandle, align 8
  %7 = getelementptr inbounds { i32, ptr }, ptr %4, i32 0, i32 0
  store i32 %1, ptr %7, align 8
  %8 = getelementptr inbounds { i32, ptr }, ptr %4, i32 0, i32 1
  store ptr %2, ptr %8, align 8
  store ptr %0, ptr %5, align 8
  %9 = load ptr, ptr %5, align 8
  call void @llvm.memcpy.p0.p0.i64(ptr align 8 %6, ptr align 8 %4, i64 16, i1 false)
  %10 = getelementptr inbounds { i32, ptr }, ptr %6, i32 0, i32 0
  %11 = load i32, ptr %10, align 8
  %12 = getelementptr inbounds { i32, ptr }, ptr %6, i32 0, i32 1
  %13 = load ptr, ptr %12, align 8
  call void @_ZN13LogStreamImplI15LogTargetHandleEC2ES0_(ptr noundef nonnull align 8 dereferenceable(160) %9, i32 %11, ptr %13)
  store ptr getelementptr inbounds inrange(-16, 40) ({ [7 x ptr] }, ptr @_ZTV9LogStream, i32 0, i32 0, i32 2), ptr %9, align 8
  ret void
}

; Function Attrs: mustprogress nounwind uwtable
define linkonce_odr hidden noundef i64 @_ZNK30CompositeCounterRepresentationI29CompositeElapsedCounterSourceE5valueEv(ptr noundef nonnull align 8 dereferenceable(16) %0) #1 comdat align 2 {
  %2 = alloca ptr, align 8
  store ptr %0, ptr %2, align 8
  %3 = load ptr, ptr %2, align 8
  %4 = getelementptr inbounds %class.Representation, ptr %3, i32 0, i32 0
  %5 = getelementptr inbounds %class.PairRep, ptr %4, i32 0, i32 0
  %6 = load i64, ptr %5, align 8
  ret i64 %6
}

; Function Attrs: mustprogress nounwind uwtable
define hidden void @_ZN21GCTraceTimeLoggerImpl7log_endE11TimeInstantI30CompositeCounterRepresentation29CompositeElapsedCounterSourceE(ptr noundef nonnull align 8 dereferenceable(88) %0, i64 %1, i64 %2) #1 align 2 {
  %4 = alloca %class.TimeInstant, align 8
  %5 = alloca ptr, align 8
  %6 = alloca double, align 8
  %7 = alloca %class.LogStream, align 8
  %8 = alloca %class.LogTargetHandle, align 8
  %9 = alloca ptr, align 8
  %10 = alloca i64, align 8
  %11 = alloca i64, align 8
  %12 = alloca i64, align 8
  %13 = getelementptr inbounds { i64, i64 }, ptr %4, i32 0, i32 0
  store i64 %1, ptr %13, align 8
  %14 = getelementptr inbounds { i64, i64 }, ptr %4, i32 0, i32 1
  store i64 %2, ptr %14, align 8
  store ptr %0, ptr %5, align 8
  %15 = load ptr, ptr %5, align 8
  %16 = call noundef i64 @_ZNK30CompositeCounterRepresentationI29CompositeElapsedCounterSourceE5valueEv(ptr noundef nonnull align 8 dereferenceable(16) %4)
  %17 = getelementptr inbounds %class.GCTraceTimeLoggerImpl, ptr %15, i32 0, i32 8
  %18 = call noundef i64 @_ZNK30CompositeCounterRepresentationI29CompositeElapsedCounterSourceE5valueEv(ptr noundef nonnull align 8 dereferenceable(16) %17)
  %19 = sub nsw i64 %16, %18
  %20 = call noundef double @_ZN10TimeHelper17counter_to_millisEl(i64 noundef %19)
  store double %20, ptr %6, align 8
  %21 = getelementptr inbounds %class.GCTraceTimeLoggerImpl, ptr %15, i32 0, i32 6
  call void @llvm.memcpy.p0.p0.i64(ptr align 8 %8, ptr align 8 %21, i64 16, i1 false)
  %22 = getelementptr inbounds { i32, ptr }, ptr %8, i32 0, i32 0
  %23 = load i32, ptr %22, align 8
  %24 = getelementptr inbounds { i32, ptr }, ptr %8, i32 0, i32 1
  %25 = load ptr, ptr %24, align 8
  call void @_ZN9LogStreamC2E15LogTargetHandle(ptr noundef nonnull align 8 dereferenceable(160) %7, i32 %23, ptr %25)
  %26 = getelementptr inbounds %class.GCTraceTimeLoggerImpl, ptr %15, i32 0, i32 2
  %27 = load ptr, ptr %26, align 8
  call void (ptr, ptr, ...) @_ZN12outputStream5printEPKcz(ptr noundef nonnull align 8 dereferenceable(56) %7, ptr noundef @.str, ptr noundef %27)
  %28 = getelementptr inbounds %class.GCTraceTimeLoggerImpl, ptr %15, i32 0, i32 3
  %29 = load i32, ptr %28, align 8
  %30 = icmp ne i32 %29, 11
  br i1 %30, label %31, label %35

31:                                               ; preds = %3
  %32 = getelementptr inbounds %class.GCTraceTimeLoggerImpl, ptr %15, i32 0, i32 3
  %33 = load i32, ptr %32, align 8
  %34 = call noundef ptr @_ZN7GCCause9to_stringENS_5CauseE(i32 noundef %33)
  call void (ptr, ptr, ...) @_ZN12outputStream5printEPKcz(ptr noundef nonnull align 8 dereferenceable(56) %7, ptr noundef @.str.4, ptr noundef %34)
  br label %35

35:                                               ; preds = %31, %3
  %36 = getelementptr inbounds %class.GCTraceTimeLoggerImpl, ptr %15, i32 0, i32 7
  %37 = load i64, ptr %36, align 8
  %38 = icmp ne i64 %37, -1
  br i1 %38, label %39, label %59

39:                                               ; preds = %35
  %40 = call noundef ptr @_ZN8Universe4heapEv()
  store ptr %40, ptr %9, align 8
  %41 = getelementptr inbounds %class.GCTraceTimeLoggerImpl, ptr %15, i32 0, i32 7
  %42 = load i64, ptr %41, align 8
  %43 = udiv i64 %42, 1048576
  store i64 %43, ptr %10, align 8
  %44 = load ptr, ptr %9, align 8
  %45 = load ptr, ptr %44, align 8
  %46 = getelementptr inbounds ptr, ptr %45, i64 12
  %47 = load ptr, ptr %46, align 8
  %48 = call noundef i64 %47(ptr noundef nonnull align 8 dereferenceable(104) %44)
  %49 = udiv i64 %48, 1048576
  store i64 %49, ptr %11, align 8
  %50 = load ptr, ptr %9, align 8
  %51 = load ptr, ptr %50, align 8
  %52 = getelementptr inbounds ptr, ptr %51, i64 11
  %53 = load ptr, ptr %52, align 8
  %54 = call noundef i64 %53(ptr noundef nonnull align 8 dereferenceable(104) %50)
  %55 = udiv i64 %54, 1048576
  store i64 %55, ptr %12, align 8
  %56 = load i64, ptr %10, align 8
  %57 = load i64, ptr %11, align 8
  %58 = load i64, ptr %12, align 8
  call void (ptr, ptr, ...) @_ZN12outputStream5printEPKcz(ptr noundef nonnull align 8 dereferenceable(56) %7, ptr noundef @.str.5, i64 noundef %56, i64 noundef %57, i64 noundef %58)
  br label %59

59:                                               ; preds = %39, %35
  %60 = load double, ptr %6, align 8
  call void (ptr, ptr, ...) @_ZN12outputStream8print_crEPKcz(ptr noundef nonnull align 8 dereferenceable(56) %7, ptr noundef @.str.6, double noundef %60)
  call void @_ZN9LogStreamD2Ev(ptr noundef nonnull align 8 dereferenceable(160) %7) #7
  ret void
}