; Function Attrs: mustprogress nounwind uwtable
define hidden void @_ZN21GCTraceTimeLoggerImpl7log_endE11TimeInstantI30CompositeCounterRepresentation29CompositeElapsedCounterSourceE(ptr nocapture noundef nonnull readonly align 8 dereferenceable(88) %0, i64 %1, i64 %2) local_unnamed_addr #0 align 2 {
  %4 = alloca %class.LogStream, align 8
  %5 = getelementptr inbounds i8, ptr %0, i64 72
  %6 = load i64, ptr %5, align 8
  %7 = sub nsw i64 %1, %6
  %8 = tail call noundef double @_ZN10TimeHelper17counter_to_millisEl(i64 noundef %7) #7
  %9 = getelementptr inbounds i8, ptr %0, i64 48
  %.sroa.0.0.copyload = load i32, ptr %9, align 8
  %.sroa.24.0..sroa_idx = getelementptr inbounds i8, ptr %0, i64 56
  %.sroa.24.0.copyload = load ptr, ptr %.sroa.24.0..sroa_idx, align 8
  call void @_ZN12outputStreamC2Eb(ptr noundef nonnull align 8 dereferenceable(56) %4, i1 noundef zeroext false) #7
  store ptr getelementptr inbounds inrange(-16, 40) (i8, ptr @_ZTV17LogStreamImplBase, i64 16), ptr %4, align 8
  %10 = getelementptr inbounds i8, ptr %4, i64 56
  call void @_ZN17LogStreamImplBase10LineBufferC1Ev(ptr noundef nonnull align 8 dereferenceable(88) %10) #7
  %11 = getelementptr inbounds i8, ptr %4, i64 144
  store i32 %.sroa.0.0.copyload, ptr %11, align 8
  %.sroa.21.0..sroa_idx.i.i = getelementptr inbounds i8, ptr %4, i64 152
  store ptr %.sroa.24.0.copyload, ptr %.sroa.21.0..sroa_idx.i.i, align 8
  store ptr getelementptr inbounds inrange(-16, 40) (i8, ptr @_ZTV9LogStream, i64 16), ptr %4, align 8
  %12 = getelementptr inbounds i8, ptr %0, i64 16
  %13 = load ptr, ptr %12, align 8
  call void (ptr, ptr, ...) @_ZN12outputStream5printEPKcz(ptr noundef nonnull align 8 dereferenceable(56) %4, ptr noundef nonnull @.str, ptr noundef %13) #7
  %14 = getelementptr inbounds i8, ptr %0, i64 24
  %15 = load i32, ptr %14, align 8
  %.not = icmp eq i32 %15, 11
  br i1 %.not, label %18, label %16

16:                                               ; preds = %3
  %17 = call noundef ptr @_ZN7GCCause9to_stringENS_5CauseE(i32 noundef %15) #7
  call void (ptr, ptr, ...) @_ZN12outputStream5printEPKcz(ptr noundef nonnull align 8 dereferenceable(56) %4, ptr noundef nonnull @.str.4, ptr noundef %17) #7
  br label %18

18:                                               ; preds = %16, %3
  %19 = getelementptr inbounds i8, ptr %0, i64 64
  %20 = load i64, ptr %19, align 8
  %.not7 = icmp eq i64 %20, -1
  br i1 %.not7, label %34, label %21

21:                                               ; preds = %18
  %22 = load ptr, ptr @_ZN8Universe14_collectedHeapE, align 8
  %23 = lshr i64 %20, 20
  %24 = load ptr, ptr %22, align 8
  %25 = getelementptr inbounds i8, ptr %24, i64 96
  %26 = load ptr, ptr %25, align 8
  %27 = call noundef i64 %26(ptr noundef nonnull align 8 dereferenceable(104) %22) #7
  %28 = lshr i64 %27, 20
  %29 = load ptr, ptr %22, align 8
  %30 = getelementptr inbounds i8, ptr %29, i64 88
  %31 = load ptr, ptr %30, align 8
  %32 = call noundef i64 %31(ptr noundef nonnull align 8 dereferenceable(104) %22) #7
  %33 = lshr i64 %32, 20
  call void (ptr, ptr, ...) @_ZN12outputStream5printEPKcz(ptr noundef nonnull align 8 dereferenceable(56) %4, ptr noundef nonnull @.str.5, i64 noundef %23, i64 noundef %28, i64 noundef %33) #7
  br label %34

34:                                               ; preds = %21, %18
  call void (ptr, ptr, ...) @_ZN12outputStream8print_crEPKcz(ptr noundef nonnull align 8 dereferenceable(56) %4, ptr noundef nonnull @.str.6, double noundef %8) #7
  call void @_ZN13LogStreamImplI15LogTargetHandleED2Ev(ptr noundef nonnull align 8 dereferenceable(160) %4) #7
  ret void
}